target datalayout = "e-m:e-p270:32:32-p271:32:32-p272:64:64-i64:64-i128:128-f80:128-n8:16:32:64-S128"
target triple = "x86_64-pc-linux-gnu"

%class.btAABB = type { %class.btVector3, %class.btVector3 }
%class.btVector3 = type { [4 x float] }
%class.btQuantizedBvhTree = type { i32, [4 x i8], %class.GIM_QUANTIZED_BVH_NODE_ARRAY, %class.btAABB, %class.btVector3 }
%class.GIM_QUANTIZED_BVH_NODE_ARRAY = type { %class.btAlignedObjectArray.base.1, [7 x i8] }
%class.btAlignedObjectArray.base.1 = type <{ [4 x i8], i32, i32, [4 x i8], ptr, i8 }>
%class.btGImpactQuantizedBvh = type { %class.btQuantizedBvhTree, ptr }
%class.BT_BOX_BOX_TRANSFORM_CACHE = type { %class.btVector3, %class.btMatrix3x3, %class.btMatrix3x3 }
%class.btMatrix3x3 = type { [3 x %class.btVector3] }

; Function Attrs: mustprogress uwtable
define linkonce_odr dso_local void @_ZN11btMatrix3x3C2Ev(ptr noundef nonnull align 4 dereferenceable(48) %0) unnamed_addr #2 comdat align 2 {
  %2 = alloca ptr, align 8
  store ptr %0, ptr %2, align 8, !tbaa !101
  %3 = load ptr, ptr %2, align 8
  %4 = getelementptr inbounds nuw %class.btMatrix3x3, ptr %3, i32 0, i32 0
  %5 = getelementptr inbounds [3 x %class.btVector3], ptr %4, i32 0, i32 0
  %6 = getelementptr inbounds %class.btVector3, ptr %5, i64 3
  br label %7

7:                                                ; preds = %7, %1
  %8 = phi ptr [ %5, %1 ], [ %9, %7 ]
  call void @_ZN9btVector3C2Ev(ptr noundef nonnull align 4 dereferenceable(16) %8)
  %9 = getelementptr inbounds %class.btVector3, ptr %8, i64 1
  %10 = icmp eq ptr %9, %6
  br i1 %10, label %11, label %7

11:                                               ; preds = %7
  ret void
}

; Function Attrs: inlinehint mustprogress nounwind uwtable
define linkonce_odr dso_local void @_ZN9btVector3C2Ev(ptr noundef nonnull align 4 dereferenceable(16) %0) unnamed_addr #5 comdat align 2 {
  %2 = alloca ptr, align 8
  store ptr %0, ptr %2, align 8, !tbaa !30
  ret void
}

; Function Attrs: inlinehint mustprogress nounwind uwtable
define linkonce_odr dso_local noundef i32 @_ZNK18btQuantizedBvhTree12getNodeCountEv(ptr noundef nonnull align 8 dereferenceable(88) %0) #5 comdat align 2 {
  %2 = alloca ptr, align 8
  store ptr %0, ptr %2, align 8, !tbaa !12
  %3 = load ptr, ptr %2, align 8
  %4 = getelementptr inbounds nuw %class.btQuantizedBvhTree, ptr %3, i32 0, i32 0
  %5 = load i32, ptr %4, align 8, !tbaa !43
  ret i32 %5
}

; Function Attrs: mustprogress uwtable
define linkonce_odr dso_local void @_ZN26BT_BOX_BOX_TRANSFORM_CACHEC2Ev(ptr noundef nonnull align 4 dereferenceable(112) %0) unnamed_addr #2 comdat align 2 {
  %2 = alloca ptr, align 8
  store ptr %0, ptr %2, align 8, !tbaa !92
  %3 = load ptr, ptr %2, align 8
  %4 = getelementptr inbounds nuw %class.BT_BOX_BOX_TRANSFORM_CACHE, ptr %3, i32 0, i32 0
  call void @_ZN9btVector3C2Ev(ptr noundef nonnull align 4 dereferenceable(16) %4)
  %5 = getelementptr inbounds nuw %class.BT_BOX_BOX_TRANSFORM_CACHE, ptr %3, i32 0, i32 1
  call void @_ZN11btMatrix3x3C2Ev(ptr noundef nonnull align 4 dereferenceable(48) %5)
  %6 = getelementptr inbounds nuw %class.BT_BOX_BOX_TRANSFORM_CACHE, ptr %3, i32 0, i32 2
  call void @_ZN11btMatrix3x3C2Ev(ptr noundef nonnull align 4 dereferenceable(48) %6)
  ret void
}

; Function Attrs: inlinehint mustprogress uwtable
define linkonce_odr dso_local noundef i32 @_ZNK21btGImpactQuantizedBvh12getNodeCountEv(ptr noundef nonnull align 8 dereferenceable(96) %0) #4 comdat align 2 {
  %2 = alloca ptr, align 8
  store ptr %0, ptr %2, align 8, !tbaa !64
  %3 = load ptr, ptr %2, align 8
  %4 = getelementptr inbounds nuw %class.btGImpactQuantizedBvh, ptr %3, i32 0, i32 0
  %5 = call noundef i32 @_ZNK18btQuantizedBvhTree12getNodeCountEv(ptr noundef nonnull align 8 dereferenceable(88) %4)
  ret i32 %5
}

; Function Attrs: mustprogress uwtable
define dso_local void @_ZN21btGImpactQuantizedBvh14find_collisionEPKS_RK11btTransformS1_S4_R9btPairSet(ptr noundef %0, ptr noundef nonnull align 4 dereferenceable(64) %1, ptr noundef %2, ptr noundef nonnull align 4 dereferenceable(64) %3, ptr noundef nonnull align 8 dereferenceable(25) %4) #2 align 2 {
  %6 = alloca ptr, align 8
  %7 = alloca ptr, align 8
  %8 = alloca ptr, align 8
  %9 = alloca ptr, align 8
  %10 = alloca ptr, align 8
  %11 = alloca %class.BT_BOX_BOX_TRANSFORM_CACHE, align 4
  store ptr %0, ptr %6, align 8, !tbaa !64
  store ptr %1, ptr %7, align 8, !tbaa !88
  store ptr %2, ptr %8, align 8, !tbaa !64
  store ptr %3, ptr %9, align 8, !tbaa !88
  store ptr %4, ptr %10, align 8, !tbaa !90
  %12 = load ptr, ptr %6, align 8, !tbaa !64
  %13 = call noundef i32 @_ZNK21btGImpactQuantizedBvh12getNodeCountEv(ptr noundef nonnull align 8 dereferenceable(96) %12)
  %14 = icmp eq i32 %13, 0
  br i1 %14, label %19, label %15

15:                                               ; preds = %5
  %16 = load ptr, ptr %8, align 8, !tbaa !64
  %17 = call noundef i32 @_ZNK21btGImpactQuantizedBvh12getNodeCountEv(ptr noundef nonnull align 8 dereferenceable(96) %16)
  %18 = icmp eq i32 %17, 0
  br i1 %18, label %19, label %20

19:                                               ; preds = %15, %5
  br label %26

20:                                               ; preds = %15
  call void @llvm.lifetime.start.p0(i64 112, ptr %11) #13
  call void @_ZN26BT_BOX_BOX_TRANSFORM_CACHEC2Ev(ptr noundef nonnull align 4 dereferenceable(112) %11)
  %21 = load ptr, ptr %7, align 8, !tbaa !88
  %22 = load ptr, ptr %9, align 8, !tbaa !88
  call void @_ZN26BT_BOX_BOX_TRANSFORM_CACHE19calc_from_homogenicERK11btTransformS2_(ptr noundef nonnull align 4 dereferenceable(112) %11, ptr noundef nonnull align 4 dereferenceable(64) %21, ptr noundef nonnull align 4 dereferenceable(64) %22)
  %23 = load ptr, ptr %6, align 8, !tbaa !64
  %24 = load ptr, ptr %8, align 8, !tbaa !64
  %25 = load ptr, ptr %10, align 8, !tbaa !90
  call void @_ZL41_find_quantized_collision_pairs_recursivePK21btGImpactQuantizedBvhS1_P9btPairSetRK26BT_BOX_BOX_TRANSFORM_CACHEiib(ptr noundef %23, ptr noundef %24, ptr noundef %25, ptr noundef nonnull align 4 dereferenceable(112) %11, i32 noundef 0, i32 noundef 0, i1 noundef zeroext true)
  call void @llvm.lifetime.end.p0(i64 112, ptr %11) #13
  br label %26

26:                                               ; preds = %20, %19
  ret void
}