; Function Attrs: mustprogress uwtable
define dso_local void @_ZN21btGImpactQuantizedBvh14find_collisionEPKS_RK11btTransformS1_S4_R9btPairSet(ptr noundef %0, ptr noundef nonnull align 4 dereferenceable(64) %1, ptr noundef %2, ptr noundef nonnull align 4 dereferenceable(64) %3, ptr noundef nonnull align 8 dereferenceable(25) %4) local_unnamed_addr #7 align 2 {
  %6 = alloca %class.BT_BOX_BOX_TRANSFORM_CACHE, align 4
  %7 = load i32, ptr %0, align 8, !tbaa !30
  %8 = icmp eq i32 %7, 0
  br i1 %8, label %13, label %9

9:                                                ; preds = %5
  %10 = load i32, ptr %2, align 8, !tbaa !30
  %11 = icmp eq i32 %10, 0
  br i1 %11, label %13, label %12

12:                                               ; preds = %9
  call void @llvm.lifetime.start.p0(i64 112, ptr nonnull %6) #15
  call void @_ZN26BT_BOX_BOX_TRANSFORM_CACHE19calc_from_homogenicERK11btTransformS2_(ptr noundef nonnull align 4 dereferenceable(112) %6, ptr noundef nonnull align 4 dereferenceable(64) %1, ptr noundef nonnull align 4 dereferenceable(64) %3)
  call fastcc void @_ZL41_find_quantized_collision_pairs_recursivePK21btGImpactQuantizedBvhS1_P9btPairSetRK26BT_BOX_BOX_TRANSFORM_CACHEiib(ptr noundef nonnull %0, ptr noundef nonnull %2, ptr noundef %4, ptr noundef nonnull align 4 dereferenceable(112) %6, i32 noundef 0, i32 noundef 0, i1 noundef zeroext true)
  call void @llvm.lifetime.end.p0(i64 112, ptr nonnull %6) #15
  br label %13

13:                                               ; preds = %5, %9, %12
  ret void
}